target datalayout = "e-m:e-p270:32:32-p271:32:32-p272:64:64-i64:64-i128:128-f80:128-n8:16:32:64-S128"
target triple = "x86_64-unknown-linux-gnu"

%"class.boost::detail::shared_count" = type { ptr }
%"class.QuantLib::Array" = type { %"class.std::unique_ptr", i64 }
%"class.std::unique_ptr" = type { %"struct.std::__uniq_ptr_data" }
%"struct.std::__uniq_ptr_data" = type { %"class.std::__uniq_ptr_impl" }
%"class.std::__uniq_ptr_impl" = type { %"class.std::tuple" }
%"class.std::tuple" = type { %"struct.std::_Tuple_impl" }
%"struct.std::_Tuple_impl" = type { %"struct.std::_Head_base.1" }
%"struct.std::_Head_base.1" = type { ptr }
%"class.QuantLib::TripleBandLinearOp" = type { %"class.QuantLib::FdmLinearOp", i64, %"class.std::unique_ptr.29", %"class.std::unique_ptr.29", %"class.std::unique_ptr.29", %"class.std::unique_ptr", %"class.std::unique_ptr", %"class.std::unique_ptr", %"class.boost::shared_ptr.37" }
%"class.QuantLib::FdmLinearOp" = type { ptr }
%"class.std::unique_ptr.29" = type { %"struct.std::__uniq_ptr_data.30" }
%"struct.std::__uniq_ptr_data.30" = type { %"class.std::__uniq_ptr_impl.31" }
%"class.std::__uniq_ptr_impl.31" = type { %"class.std::tuple.32" }
%"class.std::tuple.32" = type { %"struct.std::_Tuple_impl.33" }
%"struct.std::_Tuple_impl.33" = type { %"struct.std::_Head_base.36" }
%"struct.std::_Head_base.36" = type { ptr }
%"class.boost::shared_ptr.37" = type { ptr, %"class.boost::detail::shared_count" }
%"class.QuantLib::FdmHullWhiteOp" = type { %"class.QuantLib::FdmLinearOpComposite", i64, %"class.QuantLib::Array", %"class.QuantLib::TripleBandLinearOp", %"class.QuantLib::TripleBandLinearOp", %"class.boost::shared_ptr.38" }
%"class.QuantLib::FdmLinearOpComposite" = type { %"class.QuantLib::FdmLinearOp" }
%"class.boost::shared_ptr.38" = type { ptr, %"class.boost::detail::shared_count" }
%"class.std::vector.56" = type { %"struct.std::_Vector_base.57" }
%"struct.std::_Vector_base.57" = type { %"struct.std::_Vector_base<boost::numeric::ublas::compressed_matrix<double>, std::allocator<boost::numeric::ublas::compressed_matrix<double>>>::_Vector_impl" }
%"struct.std::_Vector_base<boost::numeric::ublas::compressed_matrix<double>, std::allocator<boost::numeric::ublas::compressed_matrix<double>>>::_Vector_impl" = type { %"struct.std::_Vector_base<boost::numeric::ublas::compressed_matrix<double>, std::allocator<boost::numeric::ublas::compressed_matrix<double>>>::_Vector_impl_data" }
%"struct.std::_Vector_base<boost::numeric::ublas::compressed_matrix<double>, std::allocator<boost::numeric::ublas::compressed_matrix<double>>>::_Vector_impl_data" = type { ptr, ptr, ptr }
%"class.boost::numeric::ublas::compressed_matrix" = type { i64, i64, i64, i64, i64, %"class.boost::numeric::ublas::unbounded_array", %"class.boost::numeric::ublas::unbounded_array", %"class.boost::numeric::ublas::unbounded_array.61" }
%"class.boost::numeric::ublas::unbounded_array" = type { [8 x i8], i64, ptr }
%"class.boost::numeric::ublas::unbounded_array.61" = type { [8 x i8], i64, ptr }
%"class.std::allocator.58" = type { i8 }

; Function Attrs: mustprogress nounwind uwtable
define linkonce_odr void @_ZNSt15__new_allocatorIN5boost7numeric5ublas17compressed_matrixIdNS2_15basic_row_majorImlEELm0ENS2_15unbounded_arrayImSaImEEENS6_IdSaIdEEEEEEC2Ev(ptr noundef nonnull align 1 dereferenceable(1) %this) unnamed_addr #3 comdat align 2 {
entry:
  %this.addr = alloca ptr, align 8
  store ptr %this, ptr %this.addr, align 8, !tbaa !3
  ret void
}

; Function Attrs: mustprogress nounwind uwtable
define linkonce_odr void @_ZNSt15__new_allocatorIN5boost7numeric5ublas17compressed_matrixIdNS2_15basic_row_majorImlEELm0ENS2_15unbounded_arrayImSaImEEENS6_IdSaIdEEEEEED2Ev(ptr noundef nonnull align 1 dereferenceable(1) %this) unnamed_addr #3 comdat align 2 {
entry:
  %this.addr = alloca ptr, align 8
  store ptr %this, ptr %this.addr, align 8, !tbaa !3
  ret void
}

; Function Attrs: mustprogress nounwind uwtable
define linkonce_odr void @_ZNSaIN5boost7numeric5ublas17compressed_matrixIdNS1_15basic_row_majorImlEELm0ENS1_15unbounded_arrayImSaImEEENS5_IdSaIdEEEEEEC2Ev(ptr noundef nonnull align 1 dereferenceable(1) %this) unnamed_addr #3 comdat align 2 {
entry:
  %this.addr = alloca ptr, align 8
  store ptr %this, ptr %this.addr, align 8, !tbaa !3
  %this1 = load ptr, ptr %this.addr, align 8
  call void @_ZNSt15__new_allocatorIN5boost7numeric5ublas17compressed_matrixIdNS2_15basic_row_majorImlEELm0ENS2_15unbounded_arrayImSaImEEENS6_IdSaIdEEEEEEC2Ev(ptr noundef nonnull align 1 dereferenceable(1) %this1) #10
  ret void
}

; Function Attrs: mustprogress uwtable
define void @_ZNK8QuantLib14FdmHullWhiteOp14toMatrixDecompEv(ptr dead_on_unwind noalias writable sret(%"class.std::vector.56") align 8 %agg.result, ptr noundef nonnull align 8 dereferenceable(208) %this) unnamed_addr #1 align 2 personality ptr @__gxx_personality_v0 {
entry:
  %result.ptr = alloca ptr, align 8
  %this.addr = alloca ptr, align 8
  %ref.tmp = alloca %"class.boost::numeric::ublas::compressed_matrix", align 8
  %ref.tmp2 = alloca %"class.std::allocator.58", align 1
  %exn.slot = alloca ptr, align 8
  %ehselector.slot = alloca i32, align 4
  store ptr %agg.result, ptr %result.ptr, align 8
  store ptr %this, ptr %this.addr, align 8, !tbaa !3
  %this1 = load ptr, ptr %this.addr, align 8
  call void @llvm.lifetime.start.p0(i64 112, ptr %ref.tmp) #10
  %mapT_ = getelementptr inbounds nuw %"class.QuantLib::FdmHullWhiteOp", ptr %this1, i32 0, i32 4
  call void @_ZNK8QuantLib18TripleBandLinearOp8toMatrixEv(ptr dead_on_unwind writable sret(%"class.boost::numeric::ublas::compressed_matrix") align 8 %ref.tmp, ptr noundef nonnull align 8 dereferenceable(80) %mapT_)
  call void @llvm.lifetime.start.p0(i64 1, ptr %ref.tmp2) #10
  call void @_ZNSaIN5boost7numeric5ublas17compressed_matrixIdNS1_15basic_row_majorImlEELm0ENS1_15unbounded_arrayImSaImEEENS5_IdSaIdEEEEEEC2Ev(ptr noundef nonnull align 1 dereferenceable(1) %ref.tmp2) #10
  invoke void @_ZNSt6vectorIN5boost7numeric5ublas17compressed_matrixIdNS2_15basic_row_majorImlEELm0ENS2_15unbounded_arrayImSaImEEENS6_IdSaIdEEEEESaISB_EEC2EmRKSB_RKSC_(ptr noundef nonnull align 8 dereferenceable(24) %agg.result, i64 noundef 1, ptr noundef nonnull align 8 dereferenceable(112) %ref.tmp, ptr noundef nonnull align 1 dereferenceable(1) %ref.tmp2)
          to label %invoke.cont unwind label %lpad

invoke.cont:                                      ; preds = %entry
  call void @_ZNSt15__new_allocatorIN5boost7numeric5ublas17compressed_matrixIdNS2_15basic_row_majorImlEELm0ENS2_15unbounded_arrayImSaImEEENS6_IdSaIdEEEEEED2Ev(ptr noundef nonnull align 1 dereferenceable(1) %ref.tmp2) #10
  call void @llvm.lifetime.end.p0(i64 1, ptr %ref.tmp2) #10
  call void @_ZN5boost7numeric5ublas17compressed_matrixIdNS1_15basic_row_majorImlEELm0ENS1_15unbounded_arrayImSaImEEENS5_IdSaIdEEEED2Ev(ptr noundef nonnull align 8 dereferenceable(112) %ref.tmp) #10
  call void @llvm.lifetime.end.p0(i64 112, ptr %ref.tmp) #10
  ret void

lpad:                                             ; preds = %entry
  %0 = landingpad { ptr, i32 }
          cleanup
  %1 = extractvalue { ptr, i32 } %0, 0
  store ptr %1, ptr %exn.slot, align 8
  %2 = extractvalue { ptr, i32 } %0, 1
  store i32 %2, ptr %ehselector.slot, align 4
  call void @_ZNSt15__new_allocatorIN5boost7numeric5ublas17compressed_matrixIdNS2_15basic_row_majorImlEELm0ENS2_15unbounded_arrayImSaImEEENS6_IdSaIdEEEEEED2Ev(ptr noundef nonnull align 1 dereferenceable(1) %ref.tmp2) #10
  call void @llvm.lifetime.end.p0(i64 1, ptr %ref.tmp2) #10
  call void @_ZN5boost7numeric5ublas17compressed_matrixIdNS1_15basic_row_majorImlEELm0ENS1_15unbounded_arrayImSaImEEENS5_IdSaIdEEEED2Ev(ptr noundef nonnull align 8 dereferenceable(112) %ref.tmp) #10
  call void @llvm.lifetime.end.p0(i64 112, ptr %ref.tmp) #10
  br label %eh.resume

eh.resume:                                        ; preds = %lpad
  %exn = load ptr, ptr %exn.slot, align 8
  %sel = load i32, ptr %ehselector.slot, align 4
  %lpad.val = insertvalue { ptr, i32 } poison, ptr %exn, 0
  %lpad.val3 = insertvalue { ptr, i32 } %lpad.val, i32 %sel, 1
  resume { ptr, i32 } %lpad.val3
}